target datalayout = "e-m:e-p270:32:32-p271:32:32-p272:64:64-i64:64-i128:128-f80:128-n8:16:32:64-S128"
target triple = "x86_64-pc-linux-gnu"

%struct.anon = type { [8 x [8 x ptr]], [8 x [8 x ptr]], ptr, ptr, ptr, ptr, ptr, double, double, double, double, double, double, i64, i64, i64, i64 }
%struct._generic_N_Vector = type { ptr, ptr, ptr }
%struct._N_VectorContent_Serial = type { i64, i32, ptr }

; Function Attrs: nounwind uwtable
define internal i32 @PrecSolveBD(ptr noundef %0, ptr noundef %1, ptr noundef %2, ptr noundef %3, ptr noundef %4, ptr noundef %5) #0 {
  %7 = alloca ptr, align 8
  %8 = alloca ptr, align 8
  %9 = alloca ptr, align 8
  %10 = alloca ptr, align 8
  %11 = alloca ptr, align 8
  %12 = alloca ptr, align 8
  %13 = alloca ptr, align 8
  %14 = alloca ptr, align 8
  %15 = alloca ptr, align 8
  %16 = alloca i64, align 8
  %17 = alloca i64, align 8
  %18 = alloca ptr, align 8
  store ptr %0, ptr %7, align 8, !tbaa !4
  store ptr %1, ptr %8, align 8, !tbaa !4
  store ptr %2, ptr %9, align 8, !tbaa !4
  store ptr %3, ptr %10, align 8, !tbaa !4
  store ptr %4, ptr %11, align 8, !tbaa !4
  store ptr %5, ptr %12, align 8, !tbaa !9
  call void @llvm.lifetime.start.p0(i64 8, ptr %13) #6
  call void @llvm.lifetime.start.p0(i64 8, ptr %14) #6
  call void @llvm.lifetime.start.p0(i64 8, ptr %15) #6
  call void @llvm.lifetime.start.p0(i64 8, ptr %16) #6
  call void @llvm.lifetime.start.p0(i64 8, ptr %17) #6
  call void @llvm.lifetime.start.p0(i64 8, ptr %18) #6
  %19 = load ptr, ptr %12, align 8, !tbaa !9
  store ptr %19, ptr %18, align 8, !tbaa !9
  store i64 0, ptr %16, align 8, !tbaa !46
  br label %20

20:                                               ; preds = %60, %6
  %21 = load i64, ptr %16, align 8, !tbaa !46
  %22 = icmp slt i64 %21, 8
  br i1 %22, label %23, label %63

23:                                               ; preds = %20
  store i64 0, ptr %17, align 8, !tbaa !46
  br label %24

24:                                               ; preds = %56, %23
  %25 = load i64, ptr %17, align 8, !tbaa !46
  %26 = icmp slt i64 %25, 8
  br i1 %26, label %27, label %59

27:                                               ; preds = %24
  %28 = load ptr, ptr %11, align 8, !tbaa !4
  %29 = getelementptr inbounds nuw %struct._generic_N_Vector, ptr %28, i32 0, i32 0
  %30 = load ptr, ptr %29, align 8, !tbaa !48
  %31 = getelementptr inbounds nuw %struct._N_VectorContent_Serial, ptr %30, i32 0, i32 2
  %32 = load ptr, ptr %31, align 8, !tbaa !51
  %33 = load i64, ptr %16, align 8, !tbaa !46
  %34 = mul nsw i64 %33, 6
  %35 = load i64, ptr %17, align 8, !tbaa !46
  %36 = mul nsw i64 %35, 48
  %37 = add nsw i64 %34, %36
  %38 = getelementptr inbounds double, ptr %32, i64 %37
  store ptr %38, ptr %14, align 8, !tbaa !47
  %39 = load ptr, ptr %18, align 8, !tbaa !9
  %40 = getelementptr inbounds nuw %struct.anon, ptr %39, i32 0, i32 0
  %41 = load i64, ptr %16, align 8, !tbaa !46
  %42 = getelementptr inbounds [8 x [8 x ptr]], ptr %40, i64 0, i64 %41
  %43 = load i64, ptr %17, align 8, !tbaa !46
  %44 = getelementptr inbounds [8 x ptr], ptr %42, i64 0, i64 %43
  %45 = load ptr, ptr %44, align 8, !tbaa !29
  store ptr %45, ptr %13, align 8, !tbaa !29
  %46 = load ptr, ptr %18, align 8, !tbaa !9
  %47 = getelementptr inbounds nuw %struct.anon, ptr %46, i32 0, i32 1
  %48 = load i64, ptr %16, align 8, !tbaa !46
  %49 = getelementptr inbounds [8 x [8 x ptr]], ptr %47, i64 0, i64 %48
  %50 = load i64, ptr %17, align 8, !tbaa !46
  %51 = getelementptr inbounds [8 x ptr], ptr %49, i64 0, i64 %50
  %52 = load ptr, ptr %51, align 8, !tbaa !30
  store ptr %52, ptr %15, align 8, !tbaa !30
  %53 = load ptr, ptr %13, align 8, !tbaa !29
  %54 = load ptr, ptr %15, align 8, !tbaa !30
  %55 = load ptr, ptr %14, align 8, !tbaa !47
  call void @SUNDlsMat_denseGETRS(ptr noundef %53, i64 noundef 6, ptr noundef %54, ptr noundef %55)
  br label %56

56:                                               ; preds = %27
  %57 = load i64, ptr %17, align 8, !tbaa !46
  %58 = add nsw i64 %57, 1
  store i64 %58, ptr %17, align 8, !tbaa !46
  br label %24

59:                                               ; preds = %24
  br label %60

60:                                               ; preds = %59
  %61 = load i64, ptr %16, align 8, !tbaa !46
  %62 = add nsw i64 %61, 1
  store i64 %62, ptr %16, align 8, !tbaa !46
  br label %20

63:                                               ; preds = %20
  call void @llvm.lifetime.end.p0(i64 8, ptr %18) #6
  call void @llvm.lifetime.end.p0(i64 8, ptr %17) #6
  call void @llvm.lifetime.end.p0(i64 8, ptr %16) #6
  call void @llvm.lifetime.end.p0(i64 8, ptr %15) #6
  call void @llvm.lifetime.end.p0(i64 8, ptr %14) #6
  call void @llvm.lifetime.end.p0(i64 8, ptr %13) #6
  ret i32 0
}