; Function Attrs: nounwind uwtable
define internal noundef i32 @PrecSolveBD(ptr readnone captures(none) %0, ptr readnone captures(none) %1, ptr readnone captures(none) %2, ptr readnone captures(none) %3, ptr noundef readonly captures(none) %4, ptr noundef readonly captures(none) %5) #0 {
  %7 = getelementptr inbounds nuw i8, ptr %5, i64 512
  br label %.preheader

.preheader:                                       ; preds = %6, %19
  %.019 = phi i64 [ 0, %6 ], [ %20, %19 ]
  %.idx = mul nuw nsw i64 %.019, 48
  br label %8

8:                                                ; preds = %.preheader, %8
  %.01618 = phi i64 [ 0, %.preheader ], [ %18, %8 ]
  %9 = load ptr, ptr %4, align 8, !tbaa !38
  %10 = getelementptr inbounds nuw i8, ptr %9, i64 16
  %11 = load ptr, ptr %10, align 8, !tbaa !41
  %12 = getelementptr inbounds nuw i8, ptr %11, i64 %.idx
  %.idx17 = mul nuw nsw i64 %.01618, 384
  %13 = getelementptr inbounds nuw i8, ptr %12, i64 %.idx17
  %14 = getelementptr inbounds nuw [8 x [8 x ptr]], ptr %5, i64 0, i64 %.019, i64 %.01618
  %15 = load ptr, ptr %14, align 8, !tbaa !9
  %16 = getelementptr inbounds nuw [8 x [8 x ptr]], ptr %7, i64 0, i64 %.019, i64 %.01618
  %17 = load ptr, ptr %16, align 8, !tbaa !11
  tail call void @SUNDlsMat_denseGETRS(ptr noundef %15, i64 noundef 6, ptr noundef %17, ptr noundef %13) #10
  %18 = add nuw nsw i64 %.01618, 1
  %exitcond.not = icmp eq i64 %18, 8
  br i1 %exitcond.not, label %19, label %8

19:                                               ; preds = %8
  %20 = add nuw nsw i64 %.019, 1
  %exitcond20.not = icmp eq i64 %20, 8
  br i1 %exitcond20.not, label %21, label %.preheader

21:                                               ; preds = %19
  ret i32 0
}